; Function Attrs: mustprogress uwtable
define noundef zeroext i1 @_ZN7rocksdb13InternalStats24HandleBlockCacheCapacityEPmPNS_6DBImplEPNS_7VersionE(ptr nocapture noundef nonnull readonly align 8 dereferenceable(1944) %this, ptr nocapture noundef writeonly %value, ptr nocapture readnone %0, ptr nocapture readnone %1) #4 align 2 {
entry:
  %call = tail call noundef ptr @_ZN7rocksdb13InternalStats21GetBlockCacheForStatsEv(ptr noundef nonnull align 8 dereferenceable(1944) %this)
  %tobool.not = icmp ne ptr %call, null
  br i1 %tobool.not, label %if.then, label %return

if.then:                                          ; preds = %entry
  %vtable = load ptr, ptr %call, align 8
  %vfn = getelementptr inbounds i8, ptr %vtable, i64 112
  %2 = load ptr, ptr %vfn, align 8
  %call3 = tail call noundef i64 %2(ptr noundef nonnull align 8 dereferenceable(56) %call)
  store i64 %call3, ptr %value, align 8
  br label %return

return:                                           ; preds = %entry, %if.then
  ret i1 %tobool.not
}